; Function Attrs: mustprogress uwtable
define hidden void @_ZN17asserted_formulas6commitEj(ptr noundef nonnull align 8 dereferenceable(7236) %0, i32 noundef %1) local_unnamed_addr #3 align 2 {
  %3 = getelementptr inbounds nuw i8, ptr %0, i64 952
  %4 = getelementptr inbounds nuw i8, ptr %0, i64 944
  %5 = load i32, ptr %4, align 8, !tbaa !28
  %6 = sub i32 %1, %5
  %7 = getelementptr inbounds nuw i8, ptr %0, i64 936
  %8 = load ptr, ptr %7, align 8, !tbaa !25
  %9 = zext i32 %5 to i64
  %10 = getelementptr inbounds nuw %class.justified_expr, ptr %8, i64 %9
  tail call void @_ZN13macro_manager14mark_forbiddenEjPK14justified_expr(ptr noundef nonnull align 8 dereferenceable(568) %3, i32 noundef %6, ptr noundef %10)
  %11 = load i32, ptr %4, align 8, !tbaa !28
  %12 = icmp ult i32 %11, %1
  br i1 %12, label %.lr.ph.preheader, label %._crit_edge

.lr.ph.preheader:                                 ; preds = %2
  %13 = zext i32 %11 to i64
  br label %.lr.ph

._crit_edge:                                      ; preds = %.lr.ph, %2
  store i32 %1, ptr %4, align 8, !tbaa !28
  ret void

.lr.ph:                                           ; preds = %.lr.ph.preheader, %.lr.ph
  %indvars.iv = phi i64 [ %13, %.lr.ph.preheader ], [ %indvars.iv.next, %.lr.ph ]
  %14 = load ptr, ptr %7, align 8, !tbaa !25
  %15 = getelementptr inbounds nuw %class.justified_expr, ptr %14, i64 %indvars.iv
  %16 = getelementptr inbounds nuw i8, ptr %15, i64 8
  %17 = load ptr, ptr %16, align 8, !tbaa !444
  %18 = getelementptr inbounds nuw i8, ptr %15, i64 16
  %19 = load ptr, ptr %18, align 8, !tbaa !446
  %20 = tail call noundef zeroext i1 @_ZN17asserted_formulas19update_substitutionEP4exprP3app(ptr noundef nonnull align 8 dereferenceable(7236) %0, ptr noundef %17, ptr noundef %19)
  %indvars.iv.next = add nuw nsw i64 %indvars.iv, 1
  %lftr.wideiv = trunc i64 %indvars.iv.next to i32
  %exitcond.not = icmp eq i32 %1, %lftr.wideiv
  br i1 %exitcond.not, label %._crit_edge, label %.lr.ph, !llvm.loop !469
}